target datalayout = "e-m:e-p270:32:32-p271:32:32-p272:64:64-i64:64-i128:128-f80:128-n8:16:32:64-S128"
target triple = "x86_64-pc-linux-gnu"

%struct._object = type { %union.anon, ptr }
%union.anon = type { i64 }
%struct.ast_state = type { %struct._PyOnceFlag, i32, ptr, ptr, ptr, ptr, ptr, ptr, ptr, ptr, ptr, ptr, ptr, ptr, ptr, ptr, ptr, ptr, ptr, ptr, ptr, ptr, ptr, ptr, ptr, ptr, ptr, ptr, ptr, ptr, ptr, ptr, ptr, ptr, ptr, ptr, ptr, ptr, ptr, ptr, ptr, ptr, ptr, ptr, ptr, ptr, ptr, ptr, ptr, ptr, ptr, ptr, ptr, ptr, ptr, ptr, ptr, ptr, ptr, ptr, ptr, ptr, ptr, ptr, ptr, ptr, ptr, ptr, ptr, ptr, ptr, ptr, ptr, ptr, ptr, ptr, ptr, ptr, ptr, ptr, ptr, ptr, ptr, ptr, ptr, ptr, ptr, ptr, ptr, ptr, ptr, ptr, ptr, ptr, ptr, ptr, ptr, ptr, ptr, ptr, ptr, ptr, ptr, ptr, ptr, ptr, ptr, ptr, ptr, ptr, ptr, ptr, ptr, ptr, ptr, ptr, ptr, ptr, ptr, ptr, ptr, ptr, ptr, ptr, ptr, ptr, ptr, ptr, ptr, ptr, ptr, ptr, ptr, ptr, ptr, ptr, ptr, ptr, ptr, ptr, ptr, ptr, ptr, ptr, ptr, ptr, ptr, ptr, ptr, ptr, ptr, ptr, ptr, ptr, ptr, ptr, ptr, ptr, ptr, ptr, ptr, ptr, ptr, ptr, ptr, ptr, ptr, ptr, ptr, ptr, ptr, ptr, ptr, ptr, ptr, ptr, ptr, ptr, ptr, ptr, ptr, ptr, ptr, ptr, ptr, ptr, ptr, ptr, ptr, ptr, ptr, ptr, ptr, ptr, ptr, ptr, ptr, ptr, ptr, ptr, ptr, ptr, ptr, ptr, ptr, ptr, ptr, ptr, ptr, ptr, ptr, ptr, ptr, ptr, ptr, ptr, ptr, ptr, ptr, ptr, ptr, ptr, ptr, ptr, ptr, ptr, ptr, ptr, ptr, ptr, ptr, ptr, ptr, ptr, ptr, ptr, ptr, ptr, ptr, ptr, ptr, ptr, ptr, ptr, ptr }
%struct._PyOnceFlag = type { i8 }
%struct.anon.4 = type { i32, i32 }

; Function Attrs: alwaysinline nounwind uwtable
define internal void @Py_INCREF(ptr noundef %0) #2 {
  %2 = alloca ptr, align 8
  %3 = alloca i32, align 4
  %4 = alloca i32, align 4
  store ptr %0, ptr %2, align 8, !tbaa !13
  call void @llvm.lifetime.start.p0(i64 4, ptr %3) #8
  %5 = load ptr, ptr %2, align 8, !tbaa !13
  %6 = getelementptr inbounds nuw %struct._object, ptr %5, i32 0, i32 0
  %7 = getelementptr inbounds nuw %struct.anon.4, ptr %6, i32 0, i32 0
  %8 = load i32, ptr %7, align 8, !tbaa !21
  store i32 %8, ptr %3, align 4, !tbaa !38
  %9 = load i32, ptr %3, align 4, !tbaa !38
  %10 = icmp slt i32 %9, 0
  br i1 %10, label %11, label %12

11:                                               ; preds = %1
  store i32 1, ptr %4, align 4
  br label %18

12:                                               ; preds = %1
  %13 = load i32, ptr %3, align 4, !tbaa !38
  %14 = add i32 %13, 1
  %15 = load ptr, ptr %2, align 8, !tbaa !13
  %16 = getelementptr inbounds nuw %struct._object, ptr %15, i32 0, i32 0
  %17 = getelementptr inbounds nuw %struct.anon.4, ptr %16, i32 0, i32 0
  store i32 %14, ptr %17, align 8, !tbaa !21
  store i32 0, ptr %4, align 4
  br label %18

18:                                               ; preds = %12, %11
  call void @llvm.lifetime.end.p0(i64 4, ptr %3) #8
  %19 = load i32, ptr %4, align 4
  switch i32 %19, label %21 [
    i32 0, label %20
    i32 1, label %20
  ]

20:                                               ; preds = %18, %18
  ret void

21:                                               ; preds = %18
  unreachable
}

; Function Attrs: inlinehint nounwind uwtable
define internal ptr @_Py_NewRef(ptr noundef %0) #6 {
  %2 = alloca ptr, align 8
  store ptr %0, ptr %2, align 8, !tbaa !13
  %3 = load ptr, ptr %2, align 8, !tbaa !13
  call void @Py_INCREF(ptr noundef %3)
  %4 = load ptr, ptr %2, align 8, !tbaa !13
  ret ptr %4
}

; Function Attrs: nounwind uwtable
define internal ptr @ast2obj_operator(ptr noundef %0, ptr noundef %1, i32 noundef %2) #0 {
  %4 = alloca ptr, align 8
  %5 = alloca ptr, align 8
  %6 = alloca ptr, align 8
  %7 = alloca i32, align 4
  store ptr %0, ptr %5, align 8, !tbaa !9
  store ptr %1, ptr %6, align 8, !tbaa !147
  store i32 %2, ptr %7, align 4, !tbaa !38
  %8 = load i32, ptr %7, align 4, !tbaa !38
  switch i32 %8, label %74 [
    i32 1, label %9
    i32 2, label %14
    i32 3, label %19
    i32 4, label %24
    i32 5, label %29
    i32 6, label %34
    i32 7, label %39
    i32 8, label %44
    i32 9, label %49
    i32 10, label %54
    i32 11, label %59
    i32 12, label %64
    i32 13, label %69
  ]

9:                                                ; preds = %3
  %10 = load ptr, ptr %5, align 8, !tbaa !9
  %11 = getelementptr inbounds nuw %struct.ast_state, ptr %10, i32 0, i32 3
  %12 = load ptr, ptr %11, align 8, !tbaa !313
  %13 = call ptr @_Py_NewRef(ptr noundef %12)
  store ptr %13, ptr %4, align 8
  br label %75

14:                                               ; preds = %3
  %15 = load ptr, ptr %5, align 8, !tbaa !9
  %16 = getelementptr inbounds nuw %struct.ast_state, ptr %15, i32 0, i32 120
  %17 = load ptr, ptr %16, align 8, !tbaa !314
  %18 = call ptr @_Py_NewRef(ptr noundef %17)
  store ptr %18, ptr %4, align 8
  br label %75

19:                                               ; preds = %3
  %20 = load ptr, ptr %5, align 8, !tbaa !9
  %21 = getelementptr inbounds nuw %struct.ast_state, ptr %20, i32 0, i32 93
  %22 = load ptr, ptr %21, align 8, !tbaa !315
  %23 = call ptr @_Py_NewRef(ptr noundef %22)
  store ptr %23, ptr %4, align 8
  br label %75

24:                                               ; preds = %3
  %25 = load ptr, ptr %5, align 8, !tbaa !9
  %26 = getelementptr inbounds nuw %struct.ast_state, ptr %25, i32 0, i32 79
  %27 = load ptr, ptr %26, align 8, !tbaa !316
  %28 = call ptr @_Py_NewRef(ptr noundef %27)
  store ptr %28, ptr %4, align 8
  br label %75

29:                                               ; preds = %3
  %30 = load ptr, ptr %5, align 8, !tbaa !9
  %31 = getelementptr inbounds nuw %struct.ast_state, ptr %30, i32 0, i32 35
  %32 = load ptr, ptr %31, align 8, !tbaa !317
  %33 = call ptr @_Py_NewRef(ptr noundef %32)
  store ptr %33, ptr %4, align 8
  br label %75

34:                                               ; preds = %3
  %35 = load ptr, ptr %5, align 8, !tbaa !9
  %36 = getelementptr inbounds nuw %struct.ast_state, ptr %35, i32 0, i32 90
  %37 = load ptr, ptr %36, align 8, !tbaa !318
  %38 = call ptr @_Py_NewRef(ptr noundef %37)
  store ptr %38, ptr %4, align 8
  br label %75

39:                                               ; preds = %3
  %40 = load ptr, ptr %5, align 8, !tbaa !9
  %41 = getelementptr inbounds nuw %struct.ast_state, ptr %40, i32 0, i32 108
  %42 = load ptr, ptr %41, align 8, !tbaa !319
  %43 = call ptr @_Py_NewRef(ptr noundef %42)
  store ptr %43, ptr %4, align 8
  br label %75

44:                                               ; preds = %3
  %45 = load ptr, ptr %5, align 8, !tbaa !9
  %46 = getelementptr inbounds nuw %struct.ast_state, ptr %45, i32 0, i32 68
  %47 = load ptr, ptr %46, align 8, !tbaa !320
  %48 = call ptr @_Py_NewRef(ptr noundef %47)
  store ptr %48, ptr %4, align 8
  br label %75

49:                                               ; preds = %3
  %50 = load ptr, ptr %5, align 8, !tbaa !9
  %51 = getelementptr inbounds nuw %struct.ast_state, ptr %50, i32 0, i32 110
  %52 = load ptr, ptr %51, align 8, !tbaa !321
  %53 = call ptr @_Py_NewRef(ptr noundef %52)
  store ptr %53, ptr %4, align 8
  br label %75

54:                                               ; preds = %3
  %55 = load ptr, ptr %5, align 8, !tbaa !9
  %56 = getelementptr inbounds nuw %struct.ast_state, ptr %55, i32 0, i32 19
  %57 = load ptr, ptr %56, align 8, !tbaa !322
  %58 = call ptr @_Py_NewRef(ptr noundef %57)
  store ptr %58, ptr %4, align 8
  br label %75

59:                                               ; preds = %3
  %60 = load ptr, ptr %5, align 8, !tbaa !9
  %61 = getelementptr inbounds nuw %struct.ast_state, ptr %60, i32 0, i32 21
  %62 = load ptr, ptr %61, align 8, !tbaa !323
  %63 = call ptr @_Py_NewRef(ptr noundef %62)
  store ptr %63, ptr %4, align 8
  br label %75

64:                                               ; preds = %3
  %65 = load ptr, ptr %5, align 8, !tbaa !9
  %66 = getelementptr inbounds nuw %struct.ast_state, ptr %65, i32 0, i32 17
  %67 = load ptr, ptr %66, align 8, !tbaa !324
  %68 = call ptr @_Py_NewRef(ptr noundef %67)
  store ptr %68, ptr %4, align 8
  br label %75

69:                                               ; preds = %3
  %70 = load ptr, ptr %5, align 8, !tbaa !9
  %71 = getelementptr inbounds nuw %struct.ast_state, ptr %70, i32 0, i32 42
  %72 = load ptr, ptr %71, align 8, !tbaa !325
  %73 = call ptr @_Py_NewRef(ptr noundef %72)
  store ptr %73, ptr %4, align 8
  br label %75

74:                                               ; preds = %3
  unreachable

75:                                               ; preds = %69, %64, %59, %54, %49, %44, %39, %34, %29, %24, %19, %14, %9
  %76 = load ptr, ptr %4, align 8
  ret ptr %76
}