; Function Attrs: mustprogress nofree norecurse nosync nounwind willreturn memory(readwrite, inaccessiblemem: none) uwtable
define internal fastcc noundef ptr @ast2obj_operator(ptr noundef readonly captures(none) %0, i32 noundef %1) unnamed_addr #6 {
  switch i32 %1, label %68 [
    i32 1, label %3
    i32 2, label %8
    i32 3, label %13
    i32 4, label %18
    i32 5, label %23
    i32 6, label %28
    i32 7, label %33
    i32 8, label %38
    i32 9, label %43
    i32 10, label %48
    i32 11, label %53
    i32 12, label %58
    i32 13, label %63
  ]

3:                                                ; preds = %2
  %4 = getelementptr inbounds nuw i8, ptr %0, i64 16
  %5 = load ptr, ptr %4, align 8, !tbaa !358
  %6 = load i32, ptr %5, align 8, !tbaa !9
  %7 = icmp slt i32 %6, 0
  br i1 %7, label %_Py_NewRef.exit, label %_Py_NewRef.exit.sink.split

8:                                                ; preds = %2
  %9 = getelementptr inbounds nuw i8, ptr %0, i64 952
  %10 = load ptr, ptr %9, align 8, !tbaa !359
  %11 = load i32, ptr %10, align 8, !tbaa !9
  %12 = icmp slt i32 %11, 0
  br i1 %12, label %_Py_NewRef.exit, label %_Py_NewRef.exit.sink.split

13:                                               ; preds = %2
  %14 = getelementptr inbounds nuw i8, ptr %0, i64 736
  %15 = load ptr, ptr %14, align 8, !tbaa !360
  %16 = load i32, ptr %15, align 8, !tbaa !9
  %17 = icmp slt i32 %16, 0
  br i1 %17, label %_Py_NewRef.exit, label %_Py_NewRef.exit.sink.split

18:                                               ; preds = %2
  %19 = getelementptr inbounds nuw i8, ptr %0, i64 624
  %20 = load ptr, ptr %19, align 8, !tbaa !361
  %21 = load i32, ptr %20, align 8, !tbaa !9
  %22 = icmp slt i32 %21, 0
  br i1 %22, label %_Py_NewRef.exit, label %_Py_NewRef.exit.sink.split

23:                                               ; preds = %2
  %24 = getelementptr inbounds nuw i8, ptr %0, i64 272
  %25 = load ptr, ptr %24, align 8, !tbaa !362
  %26 = load i32, ptr %25, align 8, !tbaa !9
  %27 = icmp slt i32 %26, 0
  br i1 %27, label %_Py_NewRef.exit, label %_Py_NewRef.exit.sink.split

28:                                               ; preds = %2
  %29 = getelementptr inbounds nuw i8, ptr %0, i64 712
  %30 = load ptr, ptr %29, align 8, !tbaa !363
  %31 = load i32, ptr %30, align 8, !tbaa !9
  %32 = icmp slt i32 %31, 0
  br i1 %32, label %_Py_NewRef.exit, label %_Py_NewRef.exit.sink.split

33:                                               ; preds = %2
  %34 = getelementptr inbounds nuw i8, ptr %0, i64 856
  %35 = load ptr, ptr %34, align 8, !tbaa !364
  %36 = load i32, ptr %35, align 8, !tbaa !9
  %37 = icmp slt i32 %36, 0
  br i1 %37, label %_Py_NewRef.exit, label %_Py_NewRef.exit.sink.split

38:                                               ; preds = %2
  %39 = getelementptr inbounds nuw i8, ptr %0, i64 536
  %40 = load ptr, ptr %39, align 8, !tbaa !365
  %41 = load i32, ptr %40, align 8, !tbaa !9
  %42 = icmp slt i32 %41, 0
  br i1 %42, label %_Py_NewRef.exit, label %_Py_NewRef.exit.sink.split

43:                                               ; preds = %2
  %44 = getelementptr inbounds nuw i8, ptr %0, i64 872
  %45 = load ptr, ptr %44, align 8, !tbaa !366
  %46 = load i32, ptr %45, align 8, !tbaa !9
  %47 = icmp slt i32 %46, 0
  br i1 %47, label %_Py_NewRef.exit, label %_Py_NewRef.exit.sink.split

48:                                               ; preds = %2
  %49 = getelementptr inbounds nuw i8, ptr %0, i64 144
  %50 = load ptr, ptr %49, align 8, !tbaa !367
  %51 = load i32, ptr %50, align 8, !tbaa !9
  %52 = icmp slt i32 %51, 0
  br i1 %52, label %_Py_NewRef.exit, label %_Py_NewRef.exit.sink.split

53:                                               ; preds = %2
  %54 = getelementptr inbounds nuw i8, ptr %0, i64 160
  %55 = load ptr, ptr %54, align 8, !tbaa !368
  %56 = load i32, ptr %55, align 8, !tbaa !9
  %57 = icmp slt i32 %56, 0
  br i1 %57, label %_Py_NewRef.exit, label %_Py_NewRef.exit.sink.split

58:                                               ; preds = %2
  %59 = getelementptr inbounds nuw i8, ptr %0, i64 128
  %60 = load ptr, ptr %59, align 8, !tbaa !369
  %61 = load i32, ptr %60, align 8, !tbaa !9
  %62 = icmp slt i32 %61, 0
  br i1 %62, label %_Py_NewRef.exit, label %_Py_NewRef.exit.sink.split

63:                                               ; preds = %2
  %64 = getelementptr inbounds nuw i8, ptr %0, i64 328
  %65 = load ptr, ptr %64, align 8, !tbaa !370
  %66 = load i32, ptr %65, align 8, !tbaa !9
  %67 = icmp slt i32 %66, 0
  br i1 %67, label %_Py_NewRef.exit, label %_Py_NewRef.exit.sink.split

68:                                               ; preds = %2
  unreachable

_Py_NewRef.exit.sink.split:                       ; preds = %63, %58, %53, %48, %43, %38, %33, %28, %23, %18, %13, %8, %3
  %.sink2 = phi i32 [ %6, %3 ], [ %11, %8 ], [ %16, %13 ], [ %21, %18 ], [ %26, %23 ], [ %31, %28 ], [ %36, %33 ], [ %41, %38 ], [ %46, %43 ], [ %51, %48 ], [ %56, %53 ], [ %61, %58 ], [ %66, %63 ]
  %.sink1 = phi ptr [ %5, %3 ], [ %10, %8 ], [ %15, %13 ], [ %20, %18 ], [ %25, %23 ], [ %30, %28 ], [ %35, %33 ], [ %40, %38 ], [ %45, %43 ], [ %50, %48 ], [ %55, %53 ], [ %60, %58 ], [ %65, %63 ]
  %69 = add nuw i32 %.sink2, 1
  store i32 %69, ptr %.sink1, align 8, !tbaa !9
  br label %_Py_NewRef.exit

_Py_NewRef.exit:                                  ; preds = %_Py_NewRef.exit.sink.split, %63, %58, %53, %48, %43, %38, %33, %28, %23, %18, %13, %8, %3
  %.0 = phi ptr [ %5, %3 ], [ %10, %8 ], [ %15, %13 ], [ %20, %18 ], [ %25, %23 ], [ %30, %28 ], [ %35, %33 ], [ %40, %38 ], [ %45, %43 ], [ %50, %48 ], [ %55, %53 ], [ %60, %58 ], [ %65, %63 ], [ %.sink1, %_Py_NewRef.exit.sink.split ]
  ret ptr %.0
}